(lp0
V\u005cLA BUENA
p1
aV\u005cLA BUENA
p2
aV\u005cLA BUENA
p3
aV\u005cLA BUENA
p4
aV\u005cLA BUENA
p5
aV\u005cLA BUENA
p6
aV\u005cLA BUENA
p7
aV\u005cLA BUENA
p8
aV\u005cLA BUENA
p9
aV\u005cLA BUENA
p10
aV\u005cLA BUENA
p11
aV\u005cLA MALA
p12
aV\u005cLA MALA
p13
aV\u005cLA MALA
p14
aV\u005cLA MALA
p15
aV\u005cLA MALA
p16
aV\u005cLA MALA
p17
aV\u005cLA MALA
p18
aV\u005cLA MALA
p19
aV\u005cLA MALA
p20
aV\u005cLA MALA
p21
aV\u005cLA MALA
p22
aV\u005cLA MALA
p23
aV\u005cLA MALA
p24
a.